; Function Attrs: nounwind uwtable
define dso_local void @lolwutUnstableCommand(ptr noundef %0) local_unnamed_addr #0 {
  %2 = tail call ptr @sdsnew(ptr noundef nonnull @.str) #14
  %3 = tail call ptr @sdscat(ptr noundef %2, ptr noundef nonnull @.str.1) #14
  %4 = tail call ptr @sdscatlen(ptr noundef %3, ptr noundef nonnull @.str.2, i64 noundef 1) #14
  %5 = getelementptr inbounds i8, ptr %4, i64 -1
  %6 = load i8, ptr %5, align 1, !tbaa !5
  %7 = zext i8 %6 to i32
  %8 = and i32 %7, 7
  switch i32 %8, label %sdslen.exit [
    i32 0, label %9
    i32 1, label %12
    i32 2, label %16
    i32 3, label %20
    i32 4, label %24
  ]

9:                                                ; preds = %1
  %10 = lshr i32 %7, 3
  %11 = zext nneg i32 %10 to i64
  br label %sdslen.exit

12:                                               ; preds = %1
  %13 = getelementptr inbounds i8, ptr %4, i64 -3
  %14 = load i8, ptr %13, align 1, !tbaa !5
  %15 = zext i8 %14 to i64
  br label %sdslen.exit

16:                                               ; preds = %1
  %17 = getelementptr inbounds i8, ptr %4, i64 -5
  %18 = load i16, ptr %17, align 1, !tbaa !8
  %19 = zext i16 %18 to i64
  br label %sdslen.exit

20:                                               ; preds = %1
  %21 = getelementptr inbounds i8, ptr %4, i64 -9
  %22 = load i32, ptr %21, align 1, !tbaa !10
  %23 = zext i32 %22 to i64
  br label %sdslen.exit

24:                                               ; preds = %1
  %25 = getelementptr inbounds i8, ptr %4, i64 -17
  %26 = load i64, ptr %25, align 1, !tbaa !12
  br label %sdslen.exit

sdslen.exit:                                      ; preds = %1, %9, %12, %16, %20, %24
  %.0.i = phi i64 [ %26, %24 ], [ %23, %20 ], [ %19, %16 ], [ %15, %12 ], [ %11, %9 ], [ 0, %1 ]
  tail call void @addReplyVerbatim(ptr noundef %0, ptr noundef nonnull %4, i64 noundef %.0.i, ptr noundef nonnull @.str.3) #14
  tail call void @sdsfree(ptr noundef nonnull %4) #14
  ret void
}